target datalayout = "e-m:e-p270:32:32-p271:32:32-p272:64:64-i64:64-i128:128-f80:128-n8:16:32:64-S128"
target triple = "x86_64-pc-linux-gnu"

%struct.t_dihatms = type { i32, i32, i32, i32, i32, i32, i32, [9 x i32] }
%"class.std::__cxx11::basic_string" = type { %"struct.std::__cxx11::basic_string<char>::_Alloc_hider", i64, %union.anon }
%"struct.std::__cxx11::basic_string<char>::_Alloc_hider" = type { ptr }
%union.anon = type { i64, [8 x i8] }
%struct.t_dlist = type { [12 x i8], i32, %"class.std::__cxx11::basic_string", [9 x i32], %struct.t_dihatms, [9 x i32], [9 x i32], [9 x float], [9 x [4 x float]] }

@.str.43 = private unnamed_addr constant [2 x i8] c"\0A\00", align 1
@.str.67 = private unnamed_addr constant [8 x i8] c"  %6.2f\00", align 1

; Function Attrs: mustprogress nounwind uwtable
define internal void @_ZL9pr_one_roP8_IO_FILERK7t_dlistif(ptr noundef %0, ptr noundef nonnull align 8 dereferenceable(400) %1, i32 noundef %2, float noundef %3) #2 {
  %5 = alloca ptr, align 8
  %6 = alloca ptr, align 8
  %7 = alloca i32, align 4
  %8 = alloca float, align 4
  %9 = alloca i32, align 4
  store ptr %0, ptr %5, align 8, !tbaa !4
  store ptr %1, ptr %6, align 8, !tbaa !92
  store i32 %2, ptr %7, align 4, !tbaa !13
  store float %3, ptr %8, align 4, !tbaa !143
  call void @llvm.lifetime.start.p0(i64 4, ptr %9) #16
  store i32 0, ptr %9, align 4, !tbaa !13
  br label %10

10:                                               ; preds = %26, %4
  %11 = load i32, ptr %9, align 4, !tbaa !13
  %12 = icmp slt i32 %11, 4
  br i1 %12, label %13, label %29

13:                                               ; preds = %10
  %14 = load ptr, ptr %5, align 8, !tbaa !4
  %15 = load ptr, ptr %6, align 8, !tbaa !92
  %16 = getelementptr inbounds nuw %struct.t_dlist, ptr %15, i32 0, i32 8
  %17 = load i32, ptr %7, align 4, !tbaa !13
  %18 = sext i32 %17 to i64
  %19 = getelementptr inbounds [9 x [4 x float]], ptr %16, i64 0, i64 %18
  %20 = load i32, ptr %9, align 4, !tbaa !13
  %21 = sext i32 %20 to i64
  %22 = getelementptr inbounds [4 x float], ptr %19, i64 0, i64 %21
  %23 = load float, ptr %22, align 4, !tbaa !143
  %24 = fpext float %23 to double
  %25 = call i32 (ptr, ptr, ...) @fprintf(ptr noundef %14, ptr noundef @.str.67, double noundef %24) #16
  br label %26

26:                                               ; preds = %13
  %27 = load i32, ptr %9, align 4, !tbaa !13
  %28 = add nsw i32 %27, 1
  store i32 %28, ptr %9, align 4, !tbaa !13
  br label %10, !llvm.loop !151

29:                                               ; preds = %10
  %30 = load ptr, ptr %5, align 8, !tbaa !4
  %31 = call i32 (ptr, ptr, ...) @fprintf(ptr noundef %30, ptr noundef @.str.43) #16
  call void @llvm.lifetime.end.p0(i64 4, ptr %9) #16
  ret void
}