; Function Attrs: mustprogress nofree nounwind uwtable
define internal void @_ZL9pr_one_roP8_IO_FILERK7t_dlistif(ptr noundef captures(none) %0, ptr noundef nonnull readonly align 8 captures(none) dereferenceable(400) %1, i32 noundef %2, float %3) unnamed_addr #13 {
  %5 = getelementptr inbounds nuw i8, ptr %1, i64 256
  %6 = sext i32 %2 to i64
  br label %7

7:                                                ; preds = %4, %7
  %indvars.iv = phi i64 [ 0, %4 ], [ %indvars.iv.next, %7 ]
  %8 = getelementptr inbounds [9 x [4 x float]], ptr %5, i64 0, i64 %6, i64 %indvars.iv
  %9 = load float, ptr %8, align 4, !tbaa !77
  %10 = fpext float %9 to double
  %11 = tail call i32 (ptr, ptr, ...) @fprintf(ptr noundef %0, ptr noundef nonnull @.str.67, double noundef %10) #18
  %indvars.iv.next = add nuw nsw i64 %indvars.iv, 1
  %exitcond.not = icmp eq i64 %indvars.iv.next, 4
  br i1 %exitcond.not, label %12, label %7, !llvm.loop !78

12:                                               ; preds = %7
  %fputc = tail call i32 @fputc(i32 10, ptr %0)
  ret void
}